; Function Attrs: mustprogress uwtable
define dso_local void @_ZN3igl15guess_extensionB5cxx11EP8_IO_FILE(ptr dead_on_unwind noalias nonnull writable sret(%"class.std::__cxx11::basic_string") align 8 %0, ptr noundef %1) local_unnamed_addr #0 personality ptr @__gxx_personality_v0 {
  %3 = getelementptr inbounds nuw i8, ptr %0, i64 16
  store ptr %3, ptr %0, align 8, !tbaa !13
  %4 = getelementptr inbounds nuw i8, ptr %0, i64 8
  store i64 0, ptr %4, align 8, !tbaa !4
  store i8 0, ptr %3, align 8, !tbaa !12
  invoke void @_ZN3igl15guess_extensionEP8_IO_FILERNSt7__cxx1112basic_stringIcSt11char_traitsIcESaIcEEE(ptr noundef %1, ptr noundef nonnull align 8 dereferenceable(32) %0)
          to label %13 unwind label %5

5:                                                ; preds = %2
  %6 = landingpad { ptr, i32 }
          cleanup
  %7 = load ptr, ptr %0, align 8, !tbaa !15
  %8 = icmp eq ptr %7, %3
  br i1 %8, label %_ZNKSt7__cxx1112basic_stringIcSt11char_traitsIcESaIcEE11_M_is_localEv.exit.thread.i.i, label %_ZNKSt7__cxx1112basic_stringIcSt11char_traitsIcESaIcEE11_M_is_localEv.exit.i.i

_ZNKSt7__cxx1112basic_stringIcSt11char_traitsIcESaIcEE11_M_is_localEv.exit.thread.i.i: ; preds = %5
  %9 = load i64, ptr %4, align 8, !tbaa !4
  %10 = icmp ult i64 %9, 16
  tail call void @llvm.assume(i1 %10)
  br label %_ZNSt7__cxx1112basic_stringIcSt11char_traitsIcESaIcEED2Ev.exit

_ZNKSt7__cxx1112basic_stringIcSt11char_traitsIcESaIcEE11_M_is_localEv.exit.i.i: ; preds = %5
  %11 = load i64, ptr %3, align 8, !tbaa !12
  %12 = add i64 %11, 1
  tail call void @_ZdlPvm(ptr noundef %7, i64 noundef %12) #12
  br label %_ZNSt7__cxx1112basic_stringIcSt11char_traitsIcESaIcEED2Ev.exit

_ZNSt7__cxx1112basic_stringIcSt11char_traitsIcESaIcEED2Ev.exit: ; preds = %_ZNKSt7__cxx1112basic_stringIcSt11char_traitsIcESaIcEE11_M_is_localEv.exit.thread.i.i, %_ZNKSt7__cxx1112basic_stringIcSt11char_traitsIcESaIcEE11_M_is_localEv.exit.i.i
  resume { ptr, i32 } %6

13:                                               ; preds = %2
  ret void
}